# SymbolsHelper-Confirmed: 4:4.10.0 amd64
libkactivities-models.so.1 libkactivities-models1 #MINVER#
 _ZN11KActivities6Models13ActivityModel11qt_metacallEN11QMetaObject4CallEiPPv@Base 4:4.10.0
 _ZN11KActivities6Models13ActivityModel11qt_metacastEPKc@Base 4:4.10.0
 _ZN11KActivities6Models13ActivityModel16staticMetaObjectE@Base 4:4.10.0
 _ZN11KActivities6Models13ActivityModel7Private13activityAddedERK7QString@Base 4:4.10.0
 _ZN11KActivities6Models13ActivityModel7Private15activityRemovedERK7QString@Base 4:4.10.0
 _ZN11KActivities6Models13ActivityModel7Private17fetchActivityInfoERK7QString@Base 4:4.10.0
 _ZN11KActivities6Models13ActivityModel7Private17fetchActivityListEv@Base 4:4.10.0
 _ZN11KActivities6Models13ActivityModel7Private19activityIconChangedERK7QStringS5_@Base 4:4.10.0
 _ZN11KActivities6Models13ActivityModel7Private19activityNameChangedERK7QStringS5_@Base 4:4.10.0
 _ZN11KActivities6Models13ActivityModel7Private20activityStateChangedERK7QStringi@Base 4:4.10.0
 _ZN11KActivities6Models13ActivityModel7Private22servicePresenceChangedEb@Base 4:4.10.0
 _ZN11KActivities6Models13ActivityModel7Private24activityInfoCallFinishedEP23QDBusPendingCallWatcher@Base 4:4.10.0
 _ZN11KActivities6Models13ActivityModel7Private26listActivitiesCallFinishedEP23QDBusPendingCallWatcher@Base 4:4.10.0
 _ZN11KActivities6Models13ActivityModelC1EP7QObject@Base 4:4.10.0
 _ZN11KActivities6Models13ActivityModelC2EP7QObject@Base 4:4.10.0
 _ZN11KActivities6Models13ActivityModelD0Ev@Base 4:4.10.0
 _ZN11KActivities6Models13ActivityModelD1Ev@Base 4:4.10.0
 _ZN11KActivities6Models13ActivityModelD2Ev@Base 4:4.10.0
 _ZN11KActivities6Models13ResourceModel11qt_metacallEN11QMetaObject4CallEiPPv@Base 4:4.10.0
 _ZN11KActivities6Models13ResourceModel11qt_metacastEPKc@Base 4:4.10.0
 _ZN11KActivities6Models13ResourceModel11setActivityERK7QString@Base 4:4.10.0
 _ZN11KActivities6Models13ResourceModel12limitChangedEi@Base 4:4.10.0
 _ZN11KActivities6Models13ResourceModel14setApplicationERK7QString@Base 4:4.10.0
 _ZN11KActivities6Models13ResourceModel14setContentModeENS1_11ContentModeE@Base 4:4.10.0
 _ZN11KActivities6Models13ResourceModel15activityChangedERK7QString@Base 4:4.10.0
 _ZN11KActivities6Models13ResourceModel16staticMetaObjectE@Base 4:4.10.0
 _ZN11KActivities6Models13ResourceModel18applicationChangedERK7QString@Base 4:4.10.0
 _ZN11KActivities6Models13ResourceModel7Private10loadLinkedEv@Base 4:4.10.0
 _ZN11KActivities6Models13ResourceModel7Private10loadRecentEv@Base 4:4.10.0
 _ZN11KActivities6Models13ResourceModel7Private10newEntriesERK5QListIN8Nepomuk25Query6ResultEE@Base 4:4.10.0
 _ZN11KActivities6Models13ResourceModel7Private12loadTopRatedEv@Base 4:4.10.0
 _ZN11KActivities6Models13ResourceModel7Private13loadFromQueryERK7QString@Base 4:4.10.0
 _ZN11KActivities6Models13ResourceModel7Private14entriesRemovedERK5QListI4QUrlE@Base 4:4.10.0
 _ZN11KActivities6Models13ResourceModel7Private14infoFromResultERKN8Nepomuk25Query6ResultE@Base 4:4.10.0
 _ZN11KActivities6Models13ResourceModel7Private18setCurrentActivityERK7QString@Base 4:4.10.0
 _ZN11KActivities6Models13ResourceModel7Private20resourceScoreUpdatedERK7QStringS5_S5_d@Base 4:4.10.0
 _ZN11KActivities6Models13ResourceModel7Private22servicePresenceChangedEb@Base 4:4.10.0
 _ZN11KActivities6Models13ResourceModel7Private5errorERK7QString@Base 4:4.10.0
 _ZN11KActivities6Models13ResourceModel7Private6reloadEv@Base 4:4.10.0
 _ZN11KActivities6Models13ResourceModel8setLimitEi@Base 4:4.10.0
 _ZN11KActivities6Models13ResourceModelC1EP7QObject@Base 4:4.10.0
 _ZN11KActivities6Models13ResourceModelC2EP7QObject@Base 4:4.10.0
 _ZN11KActivities6Models13ResourceModelD0Ev@Base 4:4.10.0
 _ZN11KActivities6Models13ResourceModelD1Ev@Base 4:4.10.0
 _ZN11KActivities6Models13ResourceModelD2Ev@Base 4:4.10.0
 _ZNK11KActivities6Models13ActivityModel10headerDataEiN2Qt11OrientationEi@Base 4:4.10.0
 _ZNK11KActivities6Models13ActivityModel10metaObjectEv@Base 4:4.10.0
 _ZNK11KActivities6Models13ActivityModel4dataERK11QModelIndexi@Base 4:4.10.0
 _ZNK11KActivities6Models13ActivityModel8rowCountERK11QModelIndex@Base 4:4.10.0
 _ZNK11KActivities6Models13ResourceModel10headerDataEiN2Qt11OrientationEi@Base 4:4.10.0
 _ZNK11KActivities6Models13ResourceModel10metaObjectEv@Base 4:4.10.0
 _ZNK11KActivities6Models13ResourceModel11applicationEv@Base 4:4.10.0
 _ZNK11KActivities6Models13ResourceModel11contentModeEv@Base 4:4.10.0
 _ZNK11KActivities6Models13ResourceModel4dataERK11QModelIndexi@Base 4:4.10.0
 _ZNK11KActivities6Models13ResourceModel5limitEv@Base 4:4.10.0
 _ZNK11KActivities6Models13ResourceModel7Private16activityToShowN3Ev@Base 4:4.10.0
 _ZNK11KActivities6Models13ResourceModel8activityEv@Base 4:4.10.0
 _ZNK11KActivities6Models13ResourceModel8rowCountERK11QModelIndex@Base 4:4.10.0
 _ZTIN11KActivities6Models13ActivityModelE@Base 4:4.10.0
 _ZTIN11KActivities6Models13ResourceModelE@Base 4:4.10.0
 _ZTSN11KActivities6Models13ActivityModelE@Base 4:4.10.0
 _ZTSN11KActivities6Models13ResourceModelE@Base 4:4.10.0
 _ZTVN11KActivities6Models13ActivityModelE@Base 4:4.10.0
 _ZTVN11KActivities6Models13ResourceModelE@Base 4:4.10.0
